; Function Attrs: mustprogress uwtable
define dso_local void @_ZN14StatementBreakC2EP5BlockRK10ExpressionRKS0_(ptr noundef nonnull align 8 dereferenceable(48) %0, ptr noundef %1, ptr noundef nonnull align 8 dereferenceable(24) %2, ptr noundef nonnull align 8 dereferenceable(192) %3) unnamed_addr #3 align 2 {
  tail call void @_ZN9StatementC2E14eStatementTypeP5Block(ptr noundef nonnull align 8 dereferenceable(32) %0, i32 noundef 7, ptr noundef %1)
  store ptr getelementptr inbounds ({ [12 x ptr] }, ptr @_ZTV14StatementBreak, i64 0, i32 0, i64 2), ptr %0, align 8
  %5 = getelementptr inbounds i8, ptr %0, i64 32
  store ptr %2, ptr %5, align 8
  %6 = getelementptr inbounds i8, ptr %0, i64 40
  store ptr %3, ptr %6, align 8
  ret void
}